Certificate:
    Data:
        Version: 3 (0x2)
        Serial Number: 1 (0x1)
    Signature Algorithm: sha1WithRSAEncryption
        Issuer: DC=org, DC=simple, O=Simple Inc, OU=Simple Signing CA, CN=Simple Signing CA
        Validity
            Not Before: Apr 15 09:54:25 2019 GMT
            Not After : Apr 14 09:54:25 2021 GMT
        Subject: DC=org, DC=simple, O=Simple Inc, OU=IT, CN=www.simple.org
        Subject Public Key Info:
            Public Key Algorithm: rsaEncryption
                Public-Key: (2048 bit)
                Modulus:
                    00:f3:e2:e9:92:84:f5:45:ba:2a:79:ac:5e:79:54:
                    98:f6:1f:15:ea:c8:b9:6e:86:f0:57:9c:7e:64:3f:
                    cf:17:58:ed:e6:5d:19:06:50:f4:d3:9e:36:2d:a1:
                    6a:b5:93:61:13:c3:35:8c:85:9a:dc:fe:56:fd:b1:
                    19:5c:a1:6a:8f:2a:94:5c:e0:aa:15:88:61:bc:a3:
                    ab:47:80:e2:6d:74:c7:b0:46:0c:2e:14:96:78:fe:
                    02:c2:ca:20:b7:ff:cb:d2:75:a0:8b:fc:51:d2:68:
                    95:60:30:40:4b:51:6c:80:82:ab:87:a2:28:c4:be:
                    22:ae:00:55:8d:73:73:ee:b4:9a:b7:fa:fa:3e:22:
                    60:f3:97:52:2e:99:a4:a0:43:67:70:5a:6f:a6:1a:
                    32:de:67:69:1f:7e:85:71:20:ab:9d:00:14:65:9f:
                    a9:84:13:b8:17:3f:d4:eb:4e:5d:56:c5:49:e2:82:
                    cb:2f:c4:c6:db:ef:43:ad:24:cb:4c:70:b9:02:1f:
                    71:47:c2:4a:89:05:1b:49:3f:e4:d2:4f:dd:cb:d1:
                    8b:db:d3:81:4e:54:91:45:2d:60:e7:45:13:d3:36:
                    9c:67:3f:a6:82:83:fa:ad:53:dd:1f:57:93:bd:0c:
                    d5:56:7c:3d:ac:4b:2b:47:90:5c:74:d7:e2:12:74:
                    d1:5b
                Exponent: 65537 (0x10001)
        X509v3 extensions:
            X509v3 Key Usage: critical
                Digital Signature, Key Encipherment
            X509v3 Basic Constraints: 
                CA:FALSE
            X509v3 Extended Key Usage: 
                TLS Web Server Authentication, TLS Web Client Authentication
            X509v3 Subject Key Identifier: 
                B0:06:3A:4C:D7:55:EF:EC:33:29:CA:75:6E:BD:3F:65:9D:35:70:9B
            X509v3 Authority Key Identifier: 
                keyid:06:6A:0B:18:82:E7:B7:00:DF:C9:F5:2D:39:EB:38:7E:9F:F4:21:01

            X509v3 Subject Alternative Name: 
                DNS:yourdomain.tld
    Signature Algorithm: sha1WithRSAEncryption
         57:02:9a:82:ce:ed:07:d1:e3:d4:2e:14:cb:b1:21:37:74:3a:
         a4:d4:f8:e6:eb:05:3a:d9:30:95:32:ee:5b:77:d0:cf:c6:49:
         20:3c:00:f7:a1:dd:e1:d7:23:e8:8b:9b:08:fd:d5:94:ba:5c:
         97:78:9f:b3:e8:25:fa:bc:72:ad:6f:8a:ff:b2:88:72:d6:4a:
         51:05:ab:41:7b:4c:49:55:90:1e:ad:9b:04:49:40:8b:6f:c1:
         4b:32:cb:03:48:88:00:b9:9d:80:6c:ed:87:c0:1d:a2:be:04:
         05:96:e5:1a:d8:d6:11:e3:ce:a8:81:d7:26:3a:1c:b0:d7:71:
         55:0f:53:da:99:fb:ee:8a:4a:8f:16:1c:99:00:47:ab:bf:67:
         79:6d:25:6f:49:8b:e3:23:2c:e8:d1:2b:45:71:b3:dc:0a:43:
         54:3f:b9:88:83:be:7b:5a:40:5b:49:cc:00:b8:1a:d4:44:6c:
         32:75:9e:52:89:f9:22:23:a7:a6:73:93:24:f5:cd:1f:69:a0:
         4b:f5:e2:59:6d:3f:a6:6a:bc:ee:21:01:7e:5b:29:9f:a8:71:
         44:af:e5:f0:49:06:13:b4:76:14:71:cb:e2:1a:4e:56:c3:0e:
         65:0e:83:ca:8d:36:aa:ce:7e:d5:cf:53:ed:16:07:36:67:c6:
         4a:3a:49:a0
-----BEGIN CERTIFICATE-----
MIID9jCCAt6gAwIBAgIBATANBgkqhkiG9w0BAQUFADB6MRMwEQYKCZImiZPyLGQB
GRYDb3JnMRYwFAYKCZImiZPyLGQBGRYGc2ltcGxlMRMwEQYDVQQKDApTaW1wbGUg
SW5jMRowGAYDVQQLDBFTaW1wbGUgU2lnbmluZyBDQTEaMBgGA1UEAwwRU2ltcGxl
IFNpZ25pbmcgQ0EwHhcNMTkwNDE1MDk1NDI1WhcNMjEwNDE0MDk1NDI1WjBoMRMw
EQYKCZImiZPyLGQBGRYDb3JnMRYwFAYKCZImiZPyLGQBGRYGc2ltcGxlMRMwEQYD
VQQKDApTaW1wbGUgSW5jMQswCQYDVQQLDAJJVDEXMBUGA1UEAwwOd3d3LnNpbXBs
ZS5vcmcwggEiMA0GCSqGSIb3DQEBAQUAA4IBDwAwggEKAoIBAQDz4umShPVFuip5
rF55VJj2HxXqyLluhvBXnH5kP88XWO3mXRkGUPTTnjYtoWq1k2ETwzWMhZrc/lb9
sRlcoWqPKpRc4KoViGG8o6tHgOJtdMewRgwuFJZ4/gLCyiC3/8vSdaCL/FHSaJVg
MEBLUWyAgquHoijEviKuAFWNc3PutJq3+vo+ImDzl1IumaSgQ2dwWm+mGjLeZ2kf
foVxIKudABRln6mEE7gXP9TrTl1WxUnigssvxMbb70OtJMtMcLkCH3FHwkqJBRtJ
P+TST93L0Yvb04FOVJFFLWDnRRPTNpxnP6aCg/qtU90fV5O9DNVWfD2sSytHkFx0
1+ISdNFbAgMBAAGjgZgwgZUwDgYDVR0PAQH/BAQDAgWgMAkGA1UdEwQCMAAwHQYD
VR0lBBYwFAYIKwYBBQUHAwEGCCsGAQUFBwMCMB0GA1UdDgQWBBSwBjpM11Xv7DMp
ynVuvT9lnTVwmzAfBgNVHSMEGDAWgBQGagsYgue3AN/J9S056zh+n/QhATAZBgNV
HREEEjAQgg55b3VyZG9tYWluLnRsZDANBgkqhkiG9w0BAQUFAAOCAQEAVwKags7t
B9Hj1C4Uy7EhN3Q6pNT45usFOtkwlTLuW3fQz8ZJIDwA96Hd4dcj6IubCP3VlLpc
l3ifs+gl+rxyrW+K/7KIctZKUQWrQXtMSVWQHq2bBElAi2/BSzLLA0iIALmdgGzt
h8Ador4EBZblGtjWEePOqIHXJjocsNdxVQ9T2pn77opKjxYcmQBHq79neW0lb0mL
4yMs6NErRXGz3ApDVD+5iIO+e1pAW0nMALga1ERsMnWeUon5IiOnpnOTJPXNH2mg
S/XiWW0/pmq87iEBflspn6hxRK/l8EkGE7R2FHHL4hpOVsMOZQ6Dyo02qs5+1c9T
7RYHNmfGSjpJoA==
-----END CERTIFICATE-----
