Certificate:
    Data:
        Version: 3 (0x2)
        Serial Number: 1 (0x1)
    Signature Algorithm: sha1WithRSAEncryption
        Issuer: DC=org, DC=simple, O=Simple Inc, OU=Simple Root CA, CN=Simple Root CA
        Validity
            Not Before: Apr 15 09:35:50 2019 GMT
            Not After : Apr 14 09:35:50 2029 GMT
        Subject: DC=org, DC=simple, O=Simple Inc, OU=Simple Root CA, CN=Simple Root CA
        Subject Public Key Info:
            Public Key Algorithm: rsaEncryption
                Public-Key: (2048 bit)
                Modulus:
                    00:e5:c7:98:f4:7a:68:e1:fc:f9:b3:6b:d8:8a:e9:
                    cd:f8:be:2e:9a:94:e7:9f:ec:fd:13:46:c4:10:77:
                    98:fc:20:64:d0:d3:64:51:da:40:61:e4:18:c0:cf:
                    cc:a0:6d:80:84:eb:b6:cc:ff:a3:a4:65:91:6f:6c:
                    9c:f6:2c:76:fb:4c:02:06:a3:f2:c1:1c:b1:73:14:
                    5c:8c:e0:9d:4e:6d:0b:95:8e:5d:2c:01:42:64:2c:
                    89:1e:a1:cd:a5:31:24:5d:07:7e:42:62:31:fa:8d:
                    d8:5d:43:1b:a8:70:c0:e9:9a:2e:48:37:47:a4:ce:
                    80:31:a4:3d:b3:5e:d0:22:83:d4:95:90:e6:15:93:
                    9f:4c:57:d7:bd:9d:5c:54:15:ee:06:6d:1a:9b:d8:
                    0d:95:d0:4b:b7:19:e1:03:03:05:bc:5a:81:76:0a:
                    46:e6:ab:d0:15:2c:db:b7:66:b8:fb:02:24:c9:29:
                    48:fc:c4:d6:ed:ff:1a:7e:a0:be:e6:b6:01:84:1d:
                    a7:5f:78:0d:66:cb:df:91:3d:c0:3e:c8:9d:48:5b:
                    0b:a4:a9:8c:5c:a4:1e:b7:9a:be:e8:90:5e:50:a7:
                    25:d5:ef:52:58:c3:af:04:26:44:ab:3f:22:c4:5a:
                    3a:b8:d6:dd:b8:3b:a1:c4:c9:3d:2b:9f:0b:1b:f5:
                    98:e1
                Exponent: 65537 (0x10001)
        X509v3 extensions:
            X509v3 Key Usage: critical
                Certificate Sign, CRL Sign
            X509v3 Basic Constraints: critical
                CA:TRUE
            X509v3 Subject Key Identifier: 
                6A:3C:E8:58:EE:FD:8D:8D:92:5A:B9:71:E1:76:20:93:E9:7B:D4:36
            X509v3 Authority Key Identifier: 
                keyid:6A:3C:E8:58:EE:FD:8D:8D:92:5A:B9:71:E1:76:20:93:E9:7B:D4:36

    Signature Algorithm: sha1WithRSAEncryption
         e3:70:b7:be:33:81:48:99:ff:5c:8f:4e:2a:b2:3c:2d:86:64:
         b6:73:a5:57:87:94:ec:a1:aa:55:89:e0:96:d7:2b:24:8d:a8:
         1b:4b:76:90:81:ab:99:df:90:a0:b4:06:49:3e:49:5d:5e:e5:
         3b:7b:9a:9b:ad:bb:c9:ce:87:52:db:2a:38:d9:fb:8b:b1:46:
         0d:c0:51:43:29:fb:3d:d0:ad:55:d3:92:d9:d4:e8:48:70:ac:
         75:de:8e:24:c5:d2:69:34:4e:fe:fa:2f:4a:89:f6:e1:89:75:
         3e:b0:91:c2:9e:f6:29:bd:0a:ba:df:bb:cf:a9:9c:87:a4:cf:
         42:42:73:2b:a3:08:c1:40:17:01:58:bc:b4:17:9c:de:c3:0b:
         f5:d6:28:18:86:bb:9c:8f:e4:cf:cf:34:75:07:45:2b:76:d8:
         49:0a:d2:f5:34:0b:13:b6:0c:2a:19:9d:6d:77:80:6b:11:97:
         e8:ee:fe:7c:8e:3d:f4:e2:80:79:44:96:2c:9a:64:39:22:cd:
         34:71:e6:6c:10:db:71:98:44:28:67:98:01:c5:d5:91:e9:95:
         78:83:e1:cc:fa:e0:ba:ea:bc:77:4b:09:4a:d1:14:cd:4a:92:
         a6:3a:bb:ce:e4:48:44:e4:c2:75:a8:a6:fa:f6:30:4f:8d:e1:
         f1:d9:74:5e
-----BEGIN CERTIFICATE-----
MIIDxjCCAq6gAwIBAgIBATANBgkqhkiG9w0BAQUFADB0MRMwEQYKCZImiZPyLGQB
GRYDb3JnMRYwFAYKCZImiZPyLGQBGRYGc2ltcGxlMRMwEQYDVQQKDApTaW1wbGUg
SW5jMRcwFQYDVQQLDA5TaW1wbGUgUm9vdCBDQTEXMBUGA1UEAwwOU2ltcGxlIFJv
b3QgQ0EwHhcNMTkwNDE1MDkzNTUwWhcNMjkwNDE0MDkzNTUwWjB0MRMwEQYKCZIm
iZPyLGQBGRYDb3JnMRYwFAYKCZImiZPyLGQBGRYGc2ltcGxlMRMwEQYDVQQKDApT
aW1wbGUgSW5jMRcwFQYDVQQLDA5TaW1wbGUgUm9vdCBDQTEXMBUGA1UEAwwOU2lt
cGxlIFJvb3QgQ0EwggEiMA0GCSqGSIb3DQEBAQUAA4IBDwAwggEKAoIBAQDlx5j0
emjh/Pmza9iK6c34vi6alOef7P0TRsQQd5j8IGTQ02RR2kBh5BjAz8ygbYCE67bM
/6OkZZFvbJz2LHb7TAIGo/LBHLFzFFyM4J1ObQuVjl0sAUJkLIkeoc2lMSRdB35C
YjH6jdhdQxuocMDpmi5IN0ekzoAxpD2zXtAig9SVkOYVk59MV9e9nVxUFe4GbRqb
2A2V0Eu3GeEDAwW8WoF2Ckbmq9AVLNu3Zrj7AiTJKUj8xNbt/xp+oL7mtgGEHadf
eA1my9+RPcA+yJ1IWwukqYxcpB63mr7okF5QpyXV71JYw68EJkSrPyLEWjq41t24
O6HEyT0rnwsb9ZjhAgMBAAGjYzBhMA4GA1UdDwEB/wQEAwIBBjAPBgNVHRMBAf8E
BTADAQH/MB0GA1UdDgQWBBRqPOhY7v2NjZJauXHhdiCT6XvUNjAfBgNVHSMEGDAW
gBRqPOhY7v2NjZJauXHhdiCT6XvUNjANBgkqhkiG9w0BAQUFAAOCAQEA43C3vjOB
SJn/XI9OKrI8LYZktnOlV4eU7KGqVYngltcrJI2oG0t2kIGrmd+QoLQGST5JXV7l
O3uam627yc6HUtsqONn7i7FGDcBRQyn7PdCtVdOS2dToSHCsdd6OJMXSaTRO/vov
Son24Yl1PrCRwp72Kb0Kut+7z6mch6TPQkJzK6MIwUAXAVi8tBec3sML9dYoGIa7
nI/kz880dQdFK3bYSQrS9TQLE7YMKhmdbXeAaxGX6O7+fI499OKAeUSWLJpkOSLN
NHHmbBDbcZhEKGeYAcXVkemVeIPhzPrguuq8d0sJStEUzUqSpjq7zuRIROTCdaim
+vYwT43h8dl0Xg==
-----END CERTIFICATE-----
Certificate:
    Data:
        Version: 3 (0x2)
        Serial Number: 2 (0x2)
    Signature Algorithm: sha1WithRSAEncryption
        Issuer: DC=org, DC=simple, O=Simple Inc, OU=Simple Root CA, CN=Simple Root CA
        Validity
            Not Before: Apr 15 09:45:03 2019 GMT
            Not After : Apr 14 09:45:03 2029 GMT
        Subject: DC=org, DC=simple, O=Simple Inc, OU=Simple Signing CA, CN=Simple Signing CA
        Subject Public Key Info:
            Public Key Algorithm: rsaEncryption
                Public-Key: (2048 bit)
                Modulus:
                    00:c5:42:f6:6c:62:7c:df:7c:2e:8c:cc:b8:fe:8b:
                    e3:8a:89:b0:e6:30:20:7a:e1:0d:5e:63:80:a5:96:
                    7a:37:48:ef:88:a1:52:12:67:2e:36:5d:81:07:2c:
                    78:bd:4c:f9:79:31:2c:97:84:40:34:63:f9:f7:bd:
                    81:c8:5f:99:4a:ab:dd:63:b8:44:38:f4:b2:59:3f:
                    38:ea:31:a1:c8:a9:fe:72:6a:e8:ba:4e:ce:0f:6b:
                    66:b4:eb:2a:50:9d:22:b5:6f:96:09:8b:30:af:cb:
                    5e:e7:cd:b8:0e:16:1c:42:ac:e5:8d:d3:66:66:b7:
                    59:22:1d:ce:72:46:69:69:30:41:bf:d8:ec:53:68:
                    32:9d:e7:a4:fa:0b:16:e0:ee:39:ef:59:2a:9a:7c:
                    77:6d:cf:b4:d5:80:e9:3d:33:e7:4b:b6:6e:e7:db:
                    24:71:95:68:18:3f:18:2e:37:4b:4b:2f:56:d1:da:
                    17:0f:29:41:9b:e4:13:70:9f:38:a4:10:26:8f:f1:
                    b8:65:de:b4:74:c9:21:b2:7f:89:8b:f8:fc:af:f1:
                    66:a6:a9:4c:c2:b4:5d:95:df:86:ac:1b:5d:5c:64:
                    e3:55:f2:84:c3:38:80:a4:95:e8:fa:c3:71:82:d6:
                    ec:a7:5e:32:cf:d0:7d:57:55:47:14:a3:98:2d:b8:
                    26:a3
                Exponent: 65537 (0x10001)
        X509v3 extensions:
            X509v3 Key Usage: critical
                Certificate Sign, CRL Sign
            X509v3 Basic Constraints: critical
                CA:TRUE, pathlen:0
            X509v3 Subject Key Identifier: 
                06:6A:0B:18:82:E7:B7:00:DF:C9:F5:2D:39:EB:38:7E:9F:F4:21:01
            X509v3 Authority Key Identifier: 
                keyid:6A:3C:E8:58:EE:FD:8D:8D:92:5A:B9:71:E1:76:20:93:E9:7B:D4:36

    Signature Algorithm: sha1WithRSAEncryption
         17:a5:fc:a6:7b:85:48:0b:61:96:f2:fe:0b:bd:f2:14:48:60:
         5f:e9:17:f2:f0:2d:a2:e8:41:be:44:12:d0:3b:8d:2c:4f:12:
         2c:bb:e1:17:c6:fb:fb:c3:bd:f9:19:e8:1d:52:cc:2a:53:a0:
         6b:9a:c0:e9:60:77:52:06:f8:f6:cf:b5:ab:4e:ee:cf:87:b5:
         0e:ac:65:bf:91:ce:e0:7b:b2:8a:9d:f4:6b:53:c1:75:60:c4:
         5b:9e:58:06:17:43:53:61:81:c7:04:55:40:90:1c:e1:35:7f:
         51:5f:9c:c1:e8:22:40:d8:6b:61:80:38:d4:a4:42:95:81:38:
         5e:c8:68:e6:32:5a:63:93:06:d5:8d:42:a9:be:0c:bb:a4:18:
         e6:b5:8e:a9:93:33:88:13:c9:4b:04:6a:e3:96:06:5c:f5:0d:
         be:00:78:38:fd:f4:f3:e4:ce:ee:45:95:d7:cd:6e:95:4a:80:
         69:f2:c9:5d:ae:e7:0c:6f:12:64:8a:f4:cd:64:bb:51:fe:9d:
         5d:09:56:74:28:e9:61:22:6b:eb:14:fa:86:48:6b:3c:a8:51:
         20:b2:f1:4f:f2:f1:7a:54:9a:72:b8:4c:86:ba:8e:72:05:ed:
         35:16:44:d0:f9:c1:d3:d8:b5:d0:57:e1:34:49:02:d5:c8:87:
         2b:97:07:37
-----BEGIN CERTIFICATE-----
MIIDzzCCAregAwIBAgIBAjANBgkqhkiG9w0BAQUFADB0MRMwEQYKCZImiZPyLGQB
GRYDb3JnMRYwFAYKCZImiZPyLGQBGRYGc2ltcGxlMRMwEQYDVQQKDApTaW1wbGUg
SW5jMRcwFQYDVQQLDA5TaW1wbGUgUm9vdCBDQTEXMBUGA1UEAwwOU2ltcGxlIFJv
b3QgQ0EwHhcNMTkwNDE1MDk0NTAzWhcNMjkwNDE0MDk0NTAzWjB6MRMwEQYKCZIm
iZPyLGQBGRYDb3JnMRYwFAYKCZImiZPyLGQBGRYGc2ltcGxlMRMwEQYDVQQKDApT
aW1wbGUgSW5jMRowGAYDVQQLDBFTaW1wbGUgU2lnbmluZyBDQTEaMBgGA1UEAwwR
U2ltcGxlIFNpZ25pbmcgQ0EwggEiMA0GCSqGSIb3DQEBAQUAA4IBDwAwggEKAoIB
AQDFQvZsYnzffC6MzLj+i+OKibDmMCB64Q1eY4Cllno3SO+IoVISZy42XYEHLHi9
TPl5MSyXhEA0Y/n3vYHIX5lKq91juEQ49LJZPzjqMaHIqf5yaui6Ts4Pa2a06ypQ
nSK1b5YJizCvy17nzbgOFhxCrOWN02Zmt1kiHc5yRmlpMEG/2OxTaDKd56T6Cxbg
7jnvWSqafHdtz7TVgOk9M+dLtm7n2yRxlWgYPxguN0tLL1bR2hcPKUGb5BNwnzik
ECaP8bhl3rR0ySGyf4mL+Pyv8WamqUzCtF2V34asG11cZONV8oTDOICklej6w3GC
1uynXjLP0H1XVUcUo5gtuCajAgMBAAGjZjBkMA4GA1UdDwEB/wQEAwIBBjASBgNV
HRMBAf8ECDAGAQH/AgEAMB0GA1UdDgQWBBQGagsYgue3AN/J9S056zh+n/QhATAf
BgNVHSMEGDAWgBRqPOhY7v2NjZJauXHhdiCT6XvUNjANBgkqhkiG9w0BAQUFAAOC
AQEAF6X8pnuFSAthlvL+C73yFEhgX+kX8vAtouhBvkQS0DuNLE8SLLvhF8b7+8O9
+RnoHVLMKlOga5rA6WB3Ugb49s+1q07uz4e1Dqxlv5HO4Huyip30a1PBdWDEW55Y
BhdDU2GBxwRVQJAc4TV/UV+cwegiQNhrYYA41KRClYE4Xsho5jJaY5MG1Y1Cqb4M
u6QY5rWOqZMziBPJSwRq45YGXPUNvgB4OP308+TO7kWV181ulUqAafLJXa7nDG8S
ZIr0zWS7Uf6dXQlWdCjpYSJr6xT6hkhrPKhRILLxT/LxelSacrhMhrqOcgXtNRZE
0PnB09i10FfhNEkC1ciHK5cHNw==
-----END CERTIFICATE-----
