Certificate:
    Data:
        Version: 3 (0x2)
        Serial Number: 1 (0x1)
    Signature Algorithm: sha1WithRSAEncryption
        Issuer: DC=org, DC=simple, O=Simple Inc, OU=Simple Root CA, CN=Simple Root CA
        Validity
            Not Before: Apr 15 09:35:50 2019 GMT
            Not After : Apr 14 09:35:50 2029 GMT
        Subject: DC=org, DC=simple, O=Simple Inc, OU=Simple Root CA, CN=Simple Root CA
        Subject Public Key Info:
            Public Key Algorithm: rsaEncryption
                Public-Key: (2048 bit)
                Modulus:
                    00:e5:c7:98:f4:7a:68:e1:fc:f9:b3:6b:d8:8a:e9:
                    cd:f8:be:2e:9a:94:e7:9f:ec:fd:13:46:c4:10:77:
                    98:fc:20:64:d0:d3:64:51:da:40:61:e4:18:c0:cf:
                    cc:a0:6d:80:84:eb:b6:cc:ff:a3:a4:65:91:6f:6c:
                    9c:f6:2c:76:fb:4c:02:06:a3:f2:c1:1c:b1:73:14:
                    5c:8c:e0:9d:4e:6d:0b:95:8e:5d:2c:01:42:64:2c:
                    89:1e:a1:cd:a5:31:24:5d:07:7e:42:62:31:fa:8d:
                    d8:5d:43:1b:a8:70:c0:e9:9a:2e:48:37:47:a4:ce:
                    80:31:a4:3d:b3:5e:d0:22:83:d4:95:90:e6:15:93:
                    9f:4c:57:d7:bd:9d:5c:54:15:ee:06:6d:1a:9b:d8:
                    0d:95:d0:4b:b7:19:e1:03:03:05:bc:5a:81:76:0a:
                    46:e6:ab:d0:15:2c:db:b7:66:b8:fb:02:24:c9:29:
                    48:fc:c4:d6:ed:ff:1a:7e:a0:be:e6:b6:01:84:1d:
                    a7:5f:78:0d:66:cb:df:91:3d:c0:3e:c8:9d:48:5b:
                    0b:a4:a9:8c:5c:a4:1e:b7:9a:be:e8:90:5e:50:a7:
                    25:d5:ef:52:58:c3:af:04:26:44:ab:3f:22:c4:5a:
                    3a:b8:d6:dd:b8:3b:a1:c4:c9:3d:2b:9f:0b:1b:f5:
                    98:e1
                Exponent: 65537 (0x10001)
        X509v3 extensions:
            X509v3 Key Usage: critical
                Certificate Sign, CRL Sign
            X509v3 Basic Constraints: critical
                CA:TRUE
            X509v3 Subject Key Identifier: 
                6A:3C:E8:58:EE:FD:8D:8D:92:5A:B9:71:E1:76:20:93:E9:7B:D4:36
            X509v3 Authority Key Identifier: 
                keyid:6A:3C:E8:58:EE:FD:8D:8D:92:5A:B9:71:E1:76:20:93:E9:7B:D4:36

    Signature Algorithm: sha1WithRSAEncryption
         e3:70:b7:be:33:81:48:99:ff:5c:8f:4e:2a:b2:3c:2d:86:64:
         b6:73:a5:57:87:94:ec:a1:aa:55:89:e0:96:d7:2b:24:8d:a8:
         1b:4b:76:90:81:ab:99:df:90:a0:b4:06:49:3e:49:5d:5e:e5:
         3b:7b:9a:9b:ad:bb:c9:ce:87:52:db:2a:38:d9:fb:8b:b1:46:
         0d:c0:51:43:29:fb:3d:d0:ad:55:d3:92:d9:d4:e8:48:70:ac:
         75:de:8e:24:c5:d2:69:34:4e:fe:fa:2f:4a:89:f6:e1:89:75:
         3e:b0:91:c2:9e:f6:29:bd:0a:ba:df:bb:cf:a9:9c:87:a4:cf:
         42:42:73:2b:a3:08:c1:40:17:01:58:bc:b4:17:9c:de:c3:0b:
         f5:d6:28:18:86:bb:9c:8f:e4:cf:cf:34:75:07:45:2b:76:d8:
         49:0a:d2:f5:34:0b:13:b6:0c:2a:19:9d:6d:77:80:6b:11:97:
         e8:ee:fe:7c:8e:3d:f4:e2:80:79:44:96:2c:9a:64:39:22:cd:
         34:71:e6:6c:10:db:71:98:44:28:67:98:01:c5:d5:91:e9:95:
         78:83:e1:cc:fa:e0:ba:ea:bc:77:4b:09:4a:d1:14:cd:4a:92:
         a6:3a:bb:ce:e4:48:44:e4:c2:75:a8:a6:fa:f6:30:4f:8d:e1:
         f1:d9:74:5e
-----BEGIN CERTIFICATE-----
MIIDxjCCAq6gAwIBAgIBATANBgkqhkiG9w0BAQUFADB0MRMwEQYKCZImiZPyLGQB
GRYDb3JnMRYwFAYKCZImiZPyLGQBGRYGc2ltcGxlMRMwEQYDVQQKDApTaW1wbGUg
SW5jMRcwFQYDVQQLDA5TaW1wbGUgUm9vdCBDQTEXMBUGA1UEAwwOU2ltcGxlIFJv
b3QgQ0EwHhcNMTkwNDE1MDkzNTUwWhcNMjkwNDE0MDkzNTUwWjB0MRMwEQYKCZIm
iZPyLGQBGRYDb3JnMRYwFAYKCZImiZPyLGQBGRYGc2ltcGxlMRMwEQYDVQQKDApT
aW1wbGUgSW5jMRcwFQYDVQQLDA5TaW1wbGUgUm9vdCBDQTEXMBUGA1UEAwwOU2lt
cGxlIFJvb3QgQ0EwggEiMA0GCSqGSIb3DQEBAQUAA4IBDwAwggEKAoIBAQDlx5j0
emjh/Pmza9iK6c34vi6alOef7P0TRsQQd5j8IGTQ02RR2kBh5BjAz8ygbYCE67bM
/6OkZZFvbJz2LHb7TAIGo/LBHLFzFFyM4J1ObQuVjl0sAUJkLIkeoc2lMSRdB35C
YjH6jdhdQxuocMDpmi5IN0ekzoAxpD2zXtAig9SVkOYVk59MV9e9nVxUFe4GbRqb
2A2V0Eu3GeEDAwW8WoF2Ckbmq9AVLNu3Zrj7AiTJKUj8xNbt/xp+oL7mtgGEHadf
eA1my9+RPcA+yJ1IWwukqYxcpB63mr7okF5QpyXV71JYw68EJkSrPyLEWjq41t24
O6HEyT0rnwsb9ZjhAgMBAAGjYzBhMA4GA1UdDwEB/wQEAwIBBjAPBgNVHRMBAf8E
BTADAQH/MB0GA1UdDgQWBBRqPOhY7v2NjZJauXHhdiCT6XvUNjAfBgNVHSMEGDAW
gBRqPOhY7v2NjZJauXHhdiCT6XvUNjANBgkqhkiG9w0BAQUFAAOCAQEA43C3vjOB
SJn/XI9OKrI8LYZktnOlV4eU7KGqVYngltcrJI2oG0t2kIGrmd+QoLQGST5JXV7l
O3uam627yc6HUtsqONn7i7FGDcBRQyn7PdCtVdOS2dToSHCsdd6OJMXSaTRO/vov
Son24Yl1PrCRwp72Kb0Kut+7z6mch6TPQkJzK6MIwUAXAVi8tBec3sML9dYoGIa7
nI/kz880dQdFK3bYSQrS9TQLE7YMKhmdbXeAaxGX6O7+fI499OKAeUSWLJpkOSLN
NHHmbBDbcZhEKGeYAcXVkemVeIPhzPrguuq8d0sJStEUzUqSpjq7zuRIROTCdaim
+vYwT43h8dl0Xg==
-----END CERTIFICATE-----
