Certificate:
    Data:
        Version: 3 (0x2)
        Serial Number: 2 (0x2)
    Signature Algorithm: sha1WithRSAEncryption
        Issuer: DC=org, DC=simple, O=Simple Inc, OU=Simple Root CA, CN=Simple Root CA
        Validity
            Not Before: Apr 15 09:45:03 2019 GMT
            Not After : Apr 14 09:45:03 2029 GMT
        Subject: DC=org, DC=simple, O=Simple Inc, OU=Simple Signing CA, CN=Simple Signing CA
        Subject Public Key Info:
            Public Key Algorithm: rsaEncryption
                Public-Key: (2048 bit)
                Modulus:
                    00:c5:42:f6:6c:62:7c:df:7c:2e:8c:cc:b8:fe:8b:
                    e3:8a:89:b0:e6:30:20:7a:e1:0d:5e:63:80:a5:96:
                    7a:37:48:ef:88:a1:52:12:67:2e:36:5d:81:07:2c:
                    78:bd:4c:f9:79:31:2c:97:84:40:34:63:f9:f7:bd:
                    81:c8:5f:99:4a:ab:dd:63:b8:44:38:f4:b2:59:3f:
                    38:ea:31:a1:c8:a9:fe:72:6a:e8:ba:4e:ce:0f:6b:
                    66:b4:eb:2a:50:9d:22:b5:6f:96:09:8b:30:af:cb:
                    5e:e7:cd:b8:0e:16:1c:42:ac:e5:8d:d3:66:66:b7:
                    59:22:1d:ce:72:46:69:69:30:41:bf:d8:ec:53:68:
                    32:9d:e7:a4:fa:0b:16:e0:ee:39:ef:59:2a:9a:7c:
                    77:6d:cf:b4:d5:80:e9:3d:33:e7:4b:b6:6e:e7:db:
                    24:71:95:68:18:3f:18:2e:37:4b:4b:2f:56:d1:da:
                    17:0f:29:41:9b:e4:13:70:9f:38:a4:10:26:8f:f1:
                    b8:65:de:b4:74:c9:21:b2:7f:89:8b:f8:fc:af:f1:
                    66:a6:a9:4c:c2:b4:5d:95:df:86:ac:1b:5d:5c:64:
                    e3:55:f2:84:c3:38:80:a4:95:e8:fa:c3:71:82:d6:
                    ec:a7:5e:32:cf:d0:7d:57:55:47:14:a3:98:2d:b8:
                    26:a3
                Exponent: 65537 (0x10001)
        X509v3 extensions:
            X509v3 Key Usage: critical
                Certificate Sign, CRL Sign
            X509v3 Basic Constraints: critical
                CA:TRUE, pathlen:0
            X509v3 Subject Key Identifier: 
                06:6A:0B:18:82:E7:B7:00:DF:C9:F5:2D:39:EB:38:7E:9F:F4:21:01
            X509v3 Authority Key Identifier: 
                keyid:6A:3C:E8:58:EE:FD:8D:8D:92:5A:B9:71:E1:76:20:93:E9:7B:D4:36

    Signature Algorithm: sha1WithRSAEncryption
         17:a5:fc:a6:7b:85:48:0b:61:96:f2:fe:0b:bd:f2:14:48:60:
         5f:e9:17:f2:f0:2d:a2:e8:41:be:44:12:d0:3b:8d:2c:4f:12:
         2c:bb:e1:17:c6:fb:fb:c3:bd:f9:19:e8:1d:52:cc:2a:53:a0:
         6b:9a:c0:e9:60:77:52:06:f8:f6:cf:b5:ab:4e:ee:cf:87:b5:
         0e:ac:65:bf:91:ce:e0:7b:b2:8a:9d:f4:6b:53:c1:75:60:c4:
         5b:9e:58:06:17:43:53:61:81:c7:04:55:40:90:1c:e1:35:7f:
         51:5f:9c:c1:e8:22:40:d8:6b:61:80:38:d4:a4:42:95:81:38:
         5e:c8:68:e6:32:5a:63:93:06:d5:8d:42:a9:be:0c:bb:a4:18:
         e6:b5:8e:a9:93:33:88:13:c9:4b:04:6a:e3:96:06:5c:f5:0d:
         be:00:78:38:fd:f4:f3:e4:ce:ee:45:95:d7:cd:6e:95:4a:80:
         69:f2:c9:5d:ae:e7:0c:6f:12:64:8a:f4:cd:64:bb:51:fe:9d:
         5d:09:56:74:28:e9:61:22:6b:eb:14:fa:86:48:6b:3c:a8:51:
         20:b2:f1:4f:f2:f1:7a:54:9a:72:b8:4c:86:ba:8e:72:05:ed:
         35:16:44:d0:f9:c1:d3:d8:b5:d0:57:e1:34:49:02:d5:c8:87:
         2b:97:07:37
-----BEGIN CERTIFICATE-----
MIIDzzCCAregAwIBAgIBAjANBgkqhkiG9w0BAQUFADB0MRMwEQYKCZImiZPyLGQB
GRYDb3JnMRYwFAYKCZImiZPyLGQBGRYGc2ltcGxlMRMwEQYDVQQKDApTaW1wbGUg
SW5jMRcwFQYDVQQLDA5TaW1wbGUgUm9vdCBDQTEXMBUGA1UEAwwOU2ltcGxlIFJv
b3QgQ0EwHhcNMTkwNDE1MDk0NTAzWhcNMjkwNDE0MDk0NTAzWjB6MRMwEQYKCZIm
iZPyLGQBGRYDb3JnMRYwFAYKCZImiZPyLGQBGRYGc2ltcGxlMRMwEQYDVQQKDApT
aW1wbGUgSW5jMRowGAYDVQQLDBFTaW1wbGUgU2lnbmluZyBDQTEaMBgGA1UEAwwR
U2ltcGxlIFNpZ25pbmcgQ0EwggEiMA0GCSqGSIb3DQEBAQUAA4IBDwAwggEKAoIB
AQDFQvZsYnzffC6MzLj+i+OKibDmMCB64Q1eY4Cllno3SO+IoVISZy42XYEHLHi9
TPl5MSyXhEA0Y/n3vYHIX5lKq91juEQ49LJZPzjqMaHIqf5yaui6Ts4Pa2a06ypQ
nSK1b5YJizCvy17nzbgOFhxCrOWN02Zmt1kiHc5yRmlpMEG/2OxTaDKd56T6Cxbg
7jnvWSqafHdtz7TVgOk9M+dLtm7n2yRxlWgYPxguN0tLL1bR2hcPKUGb5BNwnzik
ECaP8bhl3rR0ySGyf4mL+Pyv8WamqUzCtF2V34asG11cZONV8oTDOICklej6w3GC
1uynXjLP0H1XVUcUo5gtuCajAgMBAAGjZjBkMA4GA1UdDwEB/wQEAwIBBjASBgNV
HRMBAf8ECDAGAQH/AgEAMB0GA1UdDgQWBBQGagsYgue3AN/J9S056zh+n/QhATAf
BgNVHSMEGDAWgBRqPOhY7v2NjZJauXHhdiCT6XvUNjANBgkqhkiG9w0BAQUFAAOC
AQEAF6X8pnuFSAthlvL+C73yFEhgX+kX8vAtouhBvkQS0DuNLE8SLLvhF8b7+8O9
+RnoHVLMKlOga5rA6WB3Ugb49s+1q07uz4e1Dqxlv5HO4Huyip30a1PBdWDEW55Y
BhdDU2GBxwRVQJAc4TV/UV+cwegiQNhrYYA41KRClYE4Xsho5jJaY5MG1Y1Cqb4M
u6QY5rWOqZMziBPJSwRq45YGXPUNvgB4OP308+TO7kWV181ulUqAafLJXa7nDG8S
ZIr0zWS7Uf6dXQlWdCjpYSJr6xT6hkhrPKhRILLxT/LxelSacrhMhrqOcgXtNRZE
0PnB09i10FfhNEkC1ciHK5cHNw==
-----END CERTIFICATE-----
